target datalayout = "e-m:e-p270:32:32-p271:32:32-p272:64:64-i64:64-i128:128-f80:128-n8:16:32:64-S128"
target triple = "x86_64-unknown-linux-gnu"

%"struct.std::pair.40" = type { %"class.std::__cxx11::basic_string", %"class.std::__cxx11::basic_string" }
%"class.std::__cxx11::basic_string" = type { %"struct.std::__cxx11::basic_string<char>::_Alloc_hider", i64, %union.anon }
%"struct.std::__cxx11::basic_string<char>::_Alloc_hider" = type { ptr }
%union.anon = type { i64, [8 x i8] }
%"class.openvdb::v11_0::points::AttributeSet::Descriptor" = type { %"class.std::map", %"class.std::vector.3", %"class.std::map", %"class.openvdb::v11_0::MetaMap", %"class.openvdb::v11_0::points::future::Container", [5 x i64] }
%"class.std::vector.3" = type { %"struct.std::_Vector_base.4" }
%"struct.std::_Vector_base.4" = type { %"struct.std::_Vector_base<std::pair<std::__cxx11::basic_string<char>, std::__cxx11::basic_string<char>>, std::allocator<std::pair<std::__cxx11::basic_string<char>, std::__cxx11::basic_string<char>>>>::_Vector_impl" }
%"struct.std::_Vector_base<std::pair<std::__cxx11::basic_string<char>, std::__cxx11::basic_string<char>>, std::allocator<std::pair<std::__cxx11::basic_string<char>, std::__cxx11::basic_string<char>>>>::_Vector_impl" = type { %"struct.std::_Vector_base<std::pair<std::__cxx11::basic_string<char>, std::__cxx11::basic_string<char>>, std::allocator<std::pair<std::__cxx11::basic_string<char>, std::__cxx11::basic_string<char>>>>::_Vector_impl_data" }
%"struct.std::_Vector_base<std::pair<std::__cxx11::basic_string<char>, std::__cxx11::basic_string<char>>, std::allocator<std::pair<std::__cxx11::basic_string<char>, std::__cxx11::basic_string<char>>>>::_Vector_impl_data" = type { ptr, ptr, ptr }
%"class.std::map" = type { %"class.std::_Rb_tree" }
%"class.std::_Rb_tree" = type { %"struct.std::_Rb_tree<std::__cxx11::basic_string<char>, std::pair<const std::__cxx11::basic_string<char>, unsigned long>, std::_Select1st<std::pair<const std::__cxx11::basic_string<char>, unsigned long>>, std::less<std::__cxx11::basic_string<char>>>::_Rb_tree_impl" }
%"struct.std::_Rb_tree<std::__cxx11::basic_string<char>, std::pair<const std::__cxx11::basic_string<char>, unsigned long>, std::_Select1st<std::pair<const std::__cxx11::basic_string<char>, unsigned long>>, std::less<std::__cxx11::basic_string<char>>>::_Rb_tree_impl" = type { %"struct.std::_Rb_tree_key_compare", %"struct.std::_Rb_tree_header" }
%"struct.std::_Rb_tree_key_compare" = type { %"struct.std::less" }
%"struct.std::less" = type { i8 }
%"struct.std::_Rb_tree_header" = type { %"struct.std::_Rb_tree_node_base", i64 }
%"struct.std::_Rb_tree_node_base" = type { i32, ptr, ptr, ptr }
%"class.openvdb::v11_0::MetaMap" = type { ptr, %"class.std::map.8" }
%"class.std::map.8" = type { %"class.std::_Rb_tree.9" }
%"class.std::_Rb_tree.9" = type { %"struct.std::_Rb_tree<std::__cxx11::basic_string<char>, std::pair<const std::__cxx11::basic_string<char>, std::shared_ptr<openvdb::v11_0::Metadata>>, std::_Select1st<std::pair<const std::__cxx11::basic_string<char>, std::shared_ptr<openvdb::v11_0::Metadata>>>, std::less<std::__cxx11::basic_string<char>>>::_Rb_tree_impl" }
%"struct.std::_Rb_tree<std::__cxx11::basic_string<char>, std::pair<const std::__cxx11::basic_string<char>, std::shared_ptr<openvdb::v11_0::Metadata>>, std::_Select1st<std::pair<const std::__cxx11::basic_string<char>, std::shared_ptr<openvdb::v11_0::Metadata>>>, std::less<std::__cxx11::basic_string<char>>>::_Rb_tree_impl" = type { %"struct.std::_Rb_tree_key_compare", %"struct.std::_Rb_tree_header" }
%"class.openvdb::v11_0::points::future::Container" = type { %"class.std::vector.13" }
%"class.std::vector.13" = type { %"struct.std::_Vector_base.14" }
%"struct.std::_Vector_base.14" = type { %"struct.std::_Vector_base<std::shared_ptr<openvdb::v11_0::points::future::Container::Element>, std::allocator<std::shared_ptr<openvdb::v11_0::points::future::Container::Element>>>::_Vector_impl" }
%"struct.std::_Vector_base<std::shared_ptr<openvdb::v11_0::points::future::Container::Element>, std::allocator<std::shared_ptr<openvdb::v11_0::points::future::Container::Element>>>::_Vector_impl" = type { %"struct.std::_Vector_base<std::shared_ptr<openvdb::v11_0::points::future::Container::Element>, std::allocator<std::shared_ptr<openvdb::v11_0::points::future::Container::Element>>>::_Vector_impl_data" }
%"struct.std::_Vector_base<std::shared_ptr<openvdb::v11_0::points::future::Container::Element>, std::allocator<std::shared_ptr<openvdb::v11_0::points::future::Container::Element>>>::_Vector_impl_data" = type { ptr, ptr, ptr }
%"class.__gnu_cxx::__normal_iterator.50" = type { ptr }
%"struct.__gnu_cxx::__ops::_Iter_equals_val" = type { ptr }

; Function Attrs: mustprogress nounwind uwtable
define linkonce_odr noundef nonnull align 8 dereferenceable(64) ptr @_ZNK9__gnu_cxx17__normal_iteratorIPKSt4pairINSt7__cxx1112basic_stringIcSt11char_traitsIcESaIcEEES7_ESt6vectorIS8_SaIS8_EEEdeEv(ptr noundef nonnull align 8 dereferenceable(8) %this) #7 comdat align 2 {
entry:
  %this.addr = alloca ptr, align 8
  store ptr %this, ptr %this.addr, align 8
  %this1 = load ptr, ptr %this.addr, align 8
  %_M_current = getelementptr inbounds %"class.__gnu_cxx::__normal_iterator.50", ptr %this1, i32 0, i32 0
  %0 = load ptr, ptr %_M_current, align 8
  ret ptr %0
}

; Function Attrs: mustprogress nounwind uwtable
define linkonce_odr noundef nonnull align 8 dereferenceable(8) ptr @_ZNK9__gnu_cxx17__normal_iteratorIPKSt4pairINSt7__cxx1112basic_stringIcSt11char_traitsIcESaIcEEES7_ESt6vectorIS8_SaIS8_EEE4baseEv(ptr noundef nonnull align 8 dereferenceable(8) %this) #7 comdat align 2 {
entry:
  %this.addr = alloca ptr, align 8
  store ptr %this, ptr %this.addr, align 8
  %this1 = load ptr, ptr %this.addr, align 8
  %_M_current = getelementptr inbounds %"class.__gnu_cxx::__normal_iterator.50", ptr %this1, i32 0, i32 0
  ret ptr %_M_current
}

; Function Attrs: mustprogress nounwind uwtable
define linkonce_odr noundef nonnull align 8 dereferenceable(8) ptr @_ZN9__gnu_cxx17__normal_iteratorIPKSt4pairINSt7__cxx1112basic_stringIcSt11char_traitsIcESaIcEEES7_ESt6vectorIS8_SaIS8_EEEppEv(ptr noundef nonnull align 8 dereferenceable(8) %this) #7 comdat align 2 {
entry:
  %this.addr = alloca ptr, align 8
  store ptr %this, ptr %this.addr, align 8
  %this1 = load ptr, ptr %this.addr, align 8
  %_M_current = getelementptr inbounds %"class.__gnu_cxx::__normal_iterator.50", ptr %this1, i32 0, i32 0
  %0 = load ptr, ptr %_M_current, align 8
  %incdec.ptr = getelementptr inbounds %"struct.std::pair.40", ptr %0, i32 1
  store ptr %incdec.ptr, ptr %_M_current, align 8
  ret ptr %this1
}

; Function Attrs: mustprogress nounwind uwtable
define linkonce_odr noundef zeroext i1 @_ZN9__gnu_cxx5__ops16_Iter_equals_valIKSt4pairINSt7__cxx1112basic_stringIcSt11char_traitsIcESaIcEEES8_EEclINS_17__normal_iteratorIPSA_St6vectorIS9_SaIS9_EEEEEEbT_(ptr noundef nonnull align 8 dereferenceable(8) %this, ptr %__it.coerce) #7 comdat align 2 {
entry:
  %__it = alloca %"class.__gnu_cxx::__normal_iterator.50", align 8
  %this.addr = alloca ptr, align 8
  %coerce.dive = getelementptr inbounds %"class.__gnu_cxx::__normal_iterator.50", ptr %__it, i32 0, i32 0
  store ptr %__it.coerce, ptr %coerce.dive, align 8
  store ptr %this, ptr %this.addr, align 8
  %this1 = load ptr, ptr %this.addr, align 8
  %call = call noundef nonnull align 8 dereferenceable(64) ptr @_ZNK9__gnu_cxx17__normal_iteratorIPKSt4pairINSt7__cxx1112basic_stringIcSt11char_traitsIcESaIcEEES7_ESt6vectorIS8_SaIS8_EEEdeEv(ptr noundef nonnull align 8 dereferenceable(8) %__it) #3
  %_M_value = getelementptr inbounds %"struct.__gnu_cxx::__ops::_Iter_equals_val", ptr %this1, i32 0, i32 0
  %0 = load ptr, ptr %_M_value, align 8
  %call2 = call noundef zeroext i1 @_ZSteqINSt7__cxx1112basic_stringIcSt11char_traitsIcESaIcEEES5_EbRKSt4pairIT_T0_ESB_(ptr noundef nonnull align 8 dereferenceable(64) %call, ptr noundef nonnull align 8 dereferenceable(64) %0)
  ret i1 %call2
}

; Function Attrs: mustprogress nounwind uwtable
define linkonce_odr noundef zeroext i1 @_ZN9__gnu_cxxneIPKSt4pairINSt7__cxx1112basic_stringIcSt11char_traitsIcESaIcEEES7_ESt6vectorIS8_SaIS8_EEEEbRKNS_17__normal_iteratorIT_T0_EESJ_(ptr noundef nonnull align 8 dereferenceable(8) %__lhs, ptr noundef nonnull align 8 dereferenceable(8) %__rhs) #7 comdat {
entry:
  %__lhs.addr = alloca ptr, align 8
  %__rhs.addr = alloca ptr, align 8
  store ptr %__lhs, ptr %__lhs.addr, align 8
  store ptr %__rhs, ptr %__rhs.addr, align 8
  %0 = load ptr, ptr %__lhs.addr, align 8
  %call = call noundef nonnull align 8 dereferenceable(8) ptr @_ZNK9__gnu_cxx17__normal_iteratorIPKSt4pairINSt7__cxx1112basic_stringIcSt11char_traitsIcESaIcEEES7_ESt6vectorIS8_SaIS8_EEE4baseEv(ptr noundef nonnull align 8 dereferenceable(8) %0) #3
  %1 = load ptr, ptr %call, align 8
  %2 = load ptr, ptr %__rhs.addr, align 8
  %call1 = call noundef nonnull align 8 dereferenceable(8) ptr @_ZNK9__gnu_cxx17__normal_iteratorIPKSt4pairINSt7__cxx1112basic_stringIcSt11char_traitsIcESaIcEEES7_ESt6vectorIS8_SaIS8_EEE4baseEv(ptr noundef nonnull align 8 dereferenceable(8) %2) #3
  %3 = load ptr, ptr %call1, align 8
  %cmp = icmp ne ptr %1, %3
  ret i1 %cmp
}

; Function Attrs: mustprogress nounwind uwtable
define linkonce_odr void @_ZN9__gnu_cxx5__ops16_Iter_equals_valIKSt4pairINSt7__cxx1112basic_stringIcSt11char_traitsIcESaIcEEES8_EEC2ERSA_(ptr noundef nonnull align 8 dereferenceable(8) %this, ptr noundef nonnull align 8 dereferenceable(64) %__value) unnamed_addr #7 comdat align 2 {
entry:
  %this.addr = alloca ptr, align 8
  %__value.addr = alloca ptr, align 8
  store ptr %this, ptr %this.addr, align 8
  store ptr %__value, ptr %__value.addr, align 8
  %this1 = load ptr, ptr %this.addr, align 8
  %_M_value = getelementptr inbounds %"struct.__gnu_cxx::__ops::_Iter_equals_val", ptr %this1, i32 0, i32 0
  %0 = load ptr, ptr %__value.addr, align 8
  store ptr %0, ptr %_M_value, align 8
  ret void
}

; Function Attrs: mustprogress uwtable
define linkonce_odr noundef i64 @_ZSt10__count_ifIN9__gnu_cxx17__normal_iteratorIPKSt4pairINSt7__cxx1112basic_stringIcSt11char_traitsIcESaIcEEES8_ESt6vectorIS9_SaIS9_EEEENS0_5__ops16_Iter_equals_valISA_EEENSt15iterator_traitsIT_E15difference_typeESK_SK_T0_(ptr %__first.coerce, ptr %__last.coerce, ptr %__pred.coerce) #4 comdat {
entry:
  %__first = alloca %"class.__gnu_cxx::__normal_iterator.50", align 8
  %__last = alloca %"class.__gnu_cxx::__normal_iterator.50", align 8
  %__pred = alloca %"struct.__gnu_cxx::__ops::_Iter_equals_val", align 8
  %__n = alloca i64, align 8
  %agg.tmp = alloca %"class.__gnu_cxx::__normal_iterator.50", align 8
  %coerce.dive = getelementptr inbounds %"class.__gnu_cxx::__normal_iterator.50", ptr %__first, i32 0, i32 0
  store ptr %__first.coerce, ptr %coerce.dive, align 8
  %coerce.dive1 = getelementptr inbounds %"class.__gnu_cxx::__normal_iterator.50", ptr %__last, i32 0, i32 0
  store ptr %__last.coerce, ptr %coerce.dive1, align 8
  %coerce.dive2 = getelementptr inbounds %"struct.__gnu_cxx::__ops::_Iter_equals_val", ptr %__pred, i32 0, i32 0
  store ptr %__pred.coerce, ptr %coerce.dive2, align 8
  store i64 0, ptr %__n, align 8
  br label %for.cond

for.cond:                                         ; preds = %for.inc, %entry
  %call = call noundef zeroext i1 @_ZN9__gnu_cxxneIPKSt4pairINSt7__cxx1112basic_stringIcSt11char_traitsIcESaIcEEES7_ESt6vectorIS8_SaIS8_EEEEbRKNS_17__normal_iteratorIT_T0_EESJ_(ptr noundef nonnull align 8 dereferenceable(8) %__first, ptr noundef nonnull align 8 dereferenceable(8) %__last) #3
  br i1 %call, label %for.body, label %for.end

for.body:                                         ; preds = %for.cond
  call void @llvm.memcpy.p0.p0.i64(ptr align 8 %agg.tmp, ptr align 8 %__first, i64 8, i1 false)
  %coerce.dive3 = getelementptr inbounds %"class.__gnu_cxx::__normal_iterator.50", ptr %agg.tmp, i32 0, i32 0
  %0 = load ptr, ptr %coerce.dive3, align 8
  %call4 = call noundef zeroext i1 @_ZN9__gnu_cxx5__ops16_Iter_equals_valIKSt4pairINSt7__cxx1112basic_stringIcSt11char_traitsIcESaIcEEES8_EEclINS_17__normal_iteratorIPSA_St6vectorIS9_SaIS9_EEEEEEbT_(ptr noundef nonnull align 8 dereferenceable(8) %__pred, ptr %0)
  br i1 %call4, label %if.then, label %if.end

if.then:                                          ; preds = %for.body
  %1 = load i64, ptr %__n, align 8
  %inc = add nsw i64 %1, 1
  store i64 %inc, ptr %__n, align 8
  br label %if.end

if.end:                                           ; preds = %if.then, %for.body
  br label %for.inc

for.inc:                                          ; preds = %if.end
  %call5 = call noundef nonnull align 8 dereferenceable(8) ptr @_ZN9__gnu_cxx17__normal_iteratorIPKSt4pairINSt7__cxx1112basic_stringIcSt11char_traitsIcESaIcEEES7_ESt6vectorIS8_SaIS8_EEEppEv(ptr noundef nonnull align 8 dereferenceable(8) %__first) #3
  br label %for.cond, !llvm.loop !63

for.end:                                          ; preds = %for.cond
  %2 = load i64, ptr %__n, align 8
  ret i64 %2
}

; Function Attrs: mustprogress uwtable
define linkonce_odr ptr @_ZN9__gnu_cxx5__ops17__iter_equals_valIKSt4pairINSt7__cxx1112basic_stringIcSt11char_traitsIcESaIcEEES8_EEENS0_16_Iter_equals_valIT_EERSC_(ptr noundef nonnull align 8 dereferenceable(64) %__val) #4 comdat {
entry:
  %retval = alloca %"struct.__gnu_cxx::__ops::_Iter_equals_val", align 8
  %__val.addr = alloca ptr, align 8
  store ptr %__val, ptr %__val.addr, align 8
  %0 = load ptr, ptr %__val.addr, align 8
  call void @_ZN9__gnu_cxx5__ops16_Iter_equals_valIKSt4pairINSt7__cxx1112basic_stringIcSt11char_traitsIcESaIcEEES8_EEC2ERSA_(ptr noundef nonnull align 8 dereferenceable(8) %retval, ptr noundef nonnull align 8 dereferenceable(64) %0)
  %coerce.dive = getelementptr inbounds %"struct.__gnu_cxx::__ops::_Iter_equals_val", ptr %retval, i32 0, i32 0
  %1 = load ptr, ptr %coerce.dive, align 8
  ret ptr %1
}

; Function Attrs: mustprogress nounwind uwtable
define linkonce_odr void @_ZN9__gnu_cxx17__normal_iteratorIPKSt4pairINSt7__cxx1112basic_stringIcSt11char_traitsIcESaIcEEES7_ESt6vectorIS8_SaIS8_EEEC2ERKSA_(ptr noundef nonnull align 8 dereferenceable(8) %this, ptr noundef nonnull align 8 dereferenceable(8) %__i) unnamed_addr #7 comdat align 2 {
entry:
  %this.addr = alloca ptr, align 8
  %__i.addr = alloca ptr, align 8
  store ptr %this, ptr %this.addr, align 8
  store ptr %__i, ptr %__i.addr, align 8
  %this1 = load ptr, ptr %this.addr, align 8
  %_M_current = getelementptr inbounds %"class.__gnu_cxx::__normal_iterator.50", ptr %this1, i32 0, i32 0
  %0 = load ptr, ptr %__i.addr, align 8
  %1 = load ptr, ptr %0, align 8
  store ptr %1, ptr %_M_current, align 8
  ret void
}

; Function Attrs: mustprogress uwtable
define linkonce_odr noundef i64 @_ZSt5countIN9__gnu_cxx17__normal_iteratorIPKSt4pairINSt7__cxx1112basic_stringIcSt11char_traitsIcESaIcEEES8_ESt6vectorIS9_SaIS9_EEEES9_ENSt15iterator_traitsIT_E15difference_typeESH_SH_RKT0_(ptr %__first.coerce, ptr %__last.coerce, ptr noundef nonnull align 8 dereferenceable(64) %__value) #4 comdat {
entry:
  %__first = alloca %"class.__gnu_cxx::__normal_iterator.50", align 8
  %__last = alloca %"class.__gnu_cxx::__normal_iterator.50", align 8
  %__value.addr = alloca ptr, align 8
  %agg.tmp = alloca %"class.__gnu_cxx::__normal_iterator.50", align 8
  %agg.tmp2 = alloca %"class.__gnu_cxx::__normal_iterator.50", align 8
  %agg.tmp3 = alloca %"struct.__gnu_cxx::__ops::_Iter_equals_val", align 8
  %coerce.dive = getelementptr inbounds %"class.__gnu_cxx::__normal_iterator.50", ptr %__first, i32 0, i32 0
  store ptr %__first.coerce, ptr %coerce.dive, align 8
  %coerce.dive1 = getelementptr inbounds %"class.__gnu_cxx::__normal_iterator.50", ptr %__last, i32 0, i32 0
  store ptr %__last.coerce, ptr %coerce.dive1, align 8
  store ptr %__value, ptr %__value.addr, align 8
  call void @llvm.memcpy.p0.p0.i64(ptr align 8 %agg.tmp, ptr align 8 %__first, i64 8, i1 false)
  call void @llvm.memcpy.p0.p0.i64(ptr align 8 %agg.tmp2, ptr align 8 %__last, i64 8, i1 false)
  %0 = load ptr, ptr %__value.addr, align 8
  %call = call ptr @_ZN9__gnu_cxx5__ops17__iter_equals_valIKSt4pairINSt7__cxx1112basic_stringIcSt11char_traitsIcESaIcEEES8_EEENS0_16_Iter_equals_valIT_EERSC_(ptr noundef nonnull align 8 dereferenceable(64) %0)
  %coerce.dive4 = getelementptr inbounds %"struct.__gnu_cxx::__ops::_Iter_equals_val", ptr %agg.tmp3, i32 0, i32 0
  store ptr %call, ptr %coerce.dive4, align 8
  %coerce.dive5 = getelementptr inbounds %"class.__gnu_cxx::__normal_iterator.50", ptr %agg.tmp, i32 0, i32 0
  %1 = load ptr, ptr %coerce.dive5, align 8
  %coerce.dive6 = getelementptr inbounds %"class.__gnu_cxx::__normal_iterator.50", ptr %agg.tmp2, i32 0, i32 0
  %2 = load ptr, ptr %coerce.dive6, align 8
  %coerce.dive7 = getelementptr inbounds %"struct.__gnu_cxx::__ops::_Iter_equals_val", ptr %agg.tmp3, i32 0, i32 0
  %3 = load ptr, ptr %coerce.dive7, align 8
  %call8 = call noundef i64 @_ZSt10__count_ifIN9__gnu_cxx17__normal_iteratorIPKSt4pairINSt7__cxx1112basic_stringIcSt11char_traitsIcESaIcEEES8_ESt6vectorIS9_SaIS9_EEEENS0_5__ops16_Iter_equals_valISA_EEENSt15iterator_traitsIT_E15difference_typeESK_SK_T0_(ptr %1, ptr %2, ptr %3)
  ret i64 %call8
}

; Function Attrs: mustprogress nounwind uwtable
define linkonce_odr ptr @_ZNKSt6vectorISt4pairINSt7__cxx1112basic_stringIcSt11char_traitsIcESaIcEEES6_ESaIS7_EE3endEv(ptr noundef nonnull align 8 dereferenceable(24) %this) #7 comdat align 2 {
entry:
  %retval = alloca %"class.__gnu_cxx::__normal_iterator.50", align 8
  %this.addr = alloca ptr, align 8
  store ptr %this, ptr %this.addr, align 8
  %this1 = load ptr, ptr %this.addr, align 8
  %_M_impl = getelementptr inbounds %"struct.std::_Vector_base.4", ptr %this1, i32 0, i32 0
  %_M_finish = getelementptr inbounds %"struct.std::_Vector_base<std::pair<std::__cxx11::basic_string<char>, std::__cxx11::basic_string<char>>, std::allocator<std::pair<std::__cxx11::basic_string<char>, std::__cxx11::basic_string<char>>>>::_Vector_impl_data", ptr %_M_impl, i32 0, i32 1
  call void @_ZN9__gnu_cxx17__normal_iteratorIPKSt4pairINSt7__cxx1112basic_stringIcSt11char_traitsIcESaIcEEES7_ESt6vectorIS8_SaIS8_EEEC2ERKSA_(ptr noundef nonnull align 8 dereferenceable(8) %retval, ptr noundef nonnull align 8 dereferenceable(8) %_M_finish) #3
  %coerce.dive = getelementptr inbounds %"class.__gnu_cxx::__normal_iterator.50", ptr %retval, i32 0, i32 0
  %0 = load ptr, ptr %coerce.dive, align 8
  ret ptr %0
}

; Function Attrs: mustprogress nounwind uwtable
define linkonce_odr ptr @_ZNKSt6vectorISt4pairINSt7__cxx1112basic_stringIcSt11char_traitsIcESaIcEEES6_ESaIS7_EE5beginEv(ptr noundef nonnull align 8 dereferenceable(24) %this) #7 comdat align 2 {
entry:
  %retval = alloca %"class.__gnu_cxx::__normal_iterator.50", align 8
  %this.addr = alloca ptr, align 8
  store ptr %this, ptr %this.addr, align 8
  %this1 = load ptr, ptr %this.addr, align 8
  %_M_impl = getelementptr inbounds %"struct.std::_Vector_base.4", ptr %this1, i32 0, i32 0
  %_M_start = getelementptr inbounds %"struct.std::_Vector_base<std::pair<std::__cxx11::basic_string<char>, std::__cxx11::basic_string<char>>, std::allocator<std::pair<std::__cxx11::basic_string<char>, std::__cxx11::basic_string<char>>>>::_Vector_impl_data", ptr %_M_impl, i32 0, i32 0
  call void @_ZN9__gnu_cxx17__normal_iteratorIPKSt4pairINSt7__cxx1112basic_stringIcSt11char_traitsIcESaIcEEES7_ESt6vectorIS8_SaIS8_EEEC2ERKSA_(ptr noundef nonnull align 8 dereferenceable(8) %retval, ptr noundef nonnull align 8 dereferenceable(8) %_M_start) #3
  %coerce.dive = getelementptr inbounds %"class.__gnu_cxx::__normal_iterator.50", ptr %retval, i32 0, i32 0
  %0 = load ptr, ptr %coerce.dive, align 8
  ret ptr %0
}

; Function Attrs: mustprogress uwtable
define noundef i64 @_ZNK7openvdb5v11_06points12AttributeSet10Descriptor5countERKSt4pairINSt7__cxx1112basic_stringIcSt11char_traitsIcESaIcEEESA_E(ptr noundef nonnull align 8 dereferenceable(240) %this, ptr noundef nonnull align 8 dereferenceable(64) %matchType) #4 align 2 {
entry:
  %this.addr = alloca ptr, align 8
  %matchType.addr = alloca ptr, align 8
  %agg.tmp = alloca %"class.__gnu_cxx::__normal_iterator.50", align 8
  %agg.tmp2 = alloca %"class.__gnu_cxx::__normal_iterator.50", align 8
  store ptr %this, ptr %this.addr, align 8
  store ptr %matchType, ptr %matchType.addr, align 8
  %this1 = load ptr, ptr %this.addr, align 8
  %mTypes = getelementptr inbounds %"class.openvdb::v11_0::points::AttributeSet::Descriptor", ptr %this1, i32 0, i32 1
  %call = call ptr @_ZNKSt6vectorISt4pairINSt7__cxx1112basic_stringIcSt11char_traitsIcESaIcEEES6_ESaIS7_EE5beginEv(ptr noundef nonnull align 8 dereferenceable(24) %mTypes) #3
  %coerce.dive = getelementptr inbounds %"class.__gnu_cxx::__normal_iterator.50", ptr %agg.tmp, i32 0, i32 0
  store ptr %call, ptr %coerce.dive, align 8
  %mTypes3 = getelementptr inbounds %"class.openvdb::v11_0::points::AttributeSet::Descriptor", ptr %this1, i32 0, i32 1
  %call4 = call ptr @_ZNKSt6vectorISt4pairINSt7__cxx1112basic_stringIcSt11char_traitsIcESaIcEEES6_ESaIS7_EE3endEv(ptr noundef nonnull align 8 dereferenceable(24) %mTypes3) #3
  %coerce.dive5 = getelementptr inbounds %"class.__gnu_cxx::__normal_iterator.50", ptr %agg.tmp2, i32 0, i32 0
  store ptr %call4, ptr %coerce.dive5, align 8
  %0 = load ptr, ptr %matchType.addr, align 8
  %coerce.dive6 = getelementptr inbounds %"class.__gnu_cxx::__normal_iterator.50", ptr %agg.tmp, i32 0, i32 0
  %1 = load ptr, ptr %coerce.dive6, align 8
  %coerce.dive7 = getelementptr inbounds %"class.__gnu_cxx::__normal_iterator.50", ptr %agg.tmp2, i32 0, i32 0
  %2 = load ptr, ptr %coerce.dive7, align 8
  %call8 = call noundef i64 @_ZSt5countIN9__gnu_cxx17__normal_iteratorIPKSt4pairINSt7__cxx1112basic_stringIcSt11char_traitsIcESaIcEEES8_ESt6vectorIS9_SaIS9_EEEES9_ENSt15iterator_traitsIT_E15difference_typeESH_SH_RKT0_(ptr %1, ptr %2, ptr noundef nonnull align 8 dereferenceable(64) %0)
  ret i64 %call8
}