; Function Attrs: mustprogress nounwind uwtable
define noundef i64 @_ZNK7openvdb5v11_06points12AttributeSet10Descriptor5countERKSt4pairINSt7__cxx1112basic_stringIcSt11char_traitsIcESaIcEEESA_E(ptr nocapture noundef nonnull readonly align 8 dereferenceable(240) %this, ptr noundef nonnull align 8 dereferenceable(64) %matchType) local_unnamed_addr #6 align 2 {
entry:
  %mTypes = getelementptr inbounds i8, ptr %this, i64 48
  %0 = load ptr, ptr %mTypes, align 8
  %_M_finish.i = getelementptr inbounds i8, ptr %this, i64 56
  %1 = load ptr, ptr %_M_finish.i, align 8
  %cmp.i.not3.i.i = icmp eq ptr %0, %1
  br i1 %cmp.i.not3.i.i, label %_ZSt5countIN9__gnu_cxx17__normal_iteratorIPKSt4pairINSt7__cxx1112basic_stringIcSt11char_traitsIcESaIcEEES8_ESt6vectorIS9_SaIS9_EEEES9_ENSt15iterator_traitsIT_E15difference_typeESH_SH_RKT0_.exit, label %for.body.i.i

for.body.i.i:                                     ; preds = %entry, %for.body.i.i
  %__n.05.i.i = phi i64 [ %spec.select.i.i, %for.body.i.i ], [ 0, %entry ]
  %__first.sroa.0.04.i.i = phi ptr [ %incdec.ptr.i.i.i, %for.body.i.i ], [ %0, %entry ]
  %call2.i.i.i = tail call noundef zeroext i1 @_ZSteqINSt7__cxx1112basic_stringIcSt11char_traitsIcESaIcEEES5_EbRKSt4pairIT_T0_ESB_(ptr noundef nonnull align 8 dereferenceable(64) %__first.sroa.0.04.i.i, ptr noundef nonnull align 8 dereferenceable(64) %matchType)
  %inc.i.i = zext i1 %call2.i.i.i to i64
  %spec.select.i.i = add nuw nsw i64 %__n.05.i.i, %inc.i.i
  %incdec.ptr.i.i.i = getelementptr inbounds i8, ptr %__first.sroa.0.04.i.i, i64 64
  %cmp.i.not.i.i = icmp eq ptr %incdec.ptr.i.i.i, %1
  br i1 %cmp.i.not.i.i, label %_ZSt5countIN9__gnu_cxx17__normal_iteratorIPKSt4pairINSt7__cxx1112basic_stringIcSt11char_traitsIcESaIcEEES8_ESt6vectorIS9_SaIS9_EEEES9_ENSt15iterator_traitsIT_E15difference_typeESH_SH_RKT0_.exit, label %for.body.i.i, !llvm.loop !55

_ZSt5countIN9__gnu_cxx17__normal_iteratorIPKSt4pairINSt7__cxx1112basic_stringIcSt11char_traitsIcESaIcEEES8_ESt6vectorIS9_SaIS9_EEEES9_ENSt15iterator_traitsIT_E15difference_typeESH_SH_RKT0_.exit: ; preds = %for.body.i.i, %entry
  %__n.0.lcssa.i.i = phi i64 [ 0, %entry ], [ %spec.select.i.i, %for.body.i.i ]
  ret i64 %__n.0.lcssa.i.i
}